target datalayout = "e-m:e-p270:32:32-p271:32:32-p272:64:64-i64:64-i128:128-f80:128-n8:16:32:64-S128"
target triple = "x86_64-pc-linux-gnu"

@__const._blend_Lab_scale.scale = private unnamed_addr constant [4 x float] [float 0x3F847AE140000000, float 7.812500e-03, float 7.812500e-03, float 1.000000e+00], align 16
@__const._blend_Lab_rescale.scale = private unnamed_addr constant [4 x float] [float 1.000000e+02, float 1.280000e+02, float 1.280000e+02, float 1.000000e+00], align 16

; Function Attrs: inlinehint nounwind uwtable
define internal void @_blend_Lab_rescale(ptr noundef %0, ptr noundef %1) #2 {
  %3 = alloca ptr, align 8
  %4 = alloca ptr, align 8
  %5 = alloca [4 x float], align 16
  %6 = alloca i64, align 8
  store ptr %0, ptr %3, align 8, !tbaa !11
  store ptr %1, ptr %4, align 8, !tbaa !11
  call void @llvm.lifetime.start.p0(i64 16, ptr %5) #8
  call void @llvm.memcpy.p0.p0.i64(ptr align 16 %5, ptr align 16 @__const._blend_Lab_rescale.scale, i64 16, i1 false)
  call void @llvm.lifetime.start.p0(i64 8, ptr %6) #8
  store i64 0, ptr %6, align 8, !tbaa !43
  br label %7

7:                                                ; preds = %23, %2
  %8 = load i64, ptr %6, align 8, !tbaa !43
  %9 = icmp ult i64 %8, 4
  br i1 %9, label %11, label %10

10:                                               ; preds = %7
  call void @llvm.lifetime.end.p0(i64 8, ptr %6) #8
  br label %26

11:                                               ; preds = %7
  %12 = load ptr, ptr %3, align 8, !tbaa !11
  %13 = load i64, ptr %6, align 8, !tbaa !43
  %14 = getelementptr inbounds nuw float, ptr %12, i64 %13
  %15 = load float, ptr %14, align 4, !tbaa !45
  %16 = load i64, ptr %6, align 8, !tbaa !43
  %17 = getelementptr inbounds nuw [4 x float], ptr %5, i64 0, i64 %16
  %18 = load float, ptr %17, align 4, !tbaa !45
  %19 = fmul reassoc nsz arcp contract afn float %15, %18
  %20 = load ptr, ptr %4, align 8, !tbaa !11
  %21 = load i64, ptr %6, align 8, !tbaa !43
  %22 = getelementptr inbounds nuw float, ptr %20, i64 %21
  store float %19, ptr %22, align 4, !tbaa !45
  br label %23

23:                                               ; preds = %11
  %24 = load i64, ptr %6, align 8, !tbaa !43
  %25 = add i64 %24, 1
  store i64 %25, ptr %6, align 8, !tbaa !43
  br label %7

26:                                               ; preds = %10
  call void @llvm.lifetime.end.p0(i64 16, ptr %5) #8
  ret void
}

; Function Attrs: inlinehint nounwind uwtable
define internal float @_CLAMP(float noundef %0, float noundef %1, float noundef %2) #2 {
  %4 = alloca float, align 4
  %5 = alloca float, align 4
  %6 = alloca float, align 4
  store float %0, ptr %4, align 4, !tbaa !45
  store float %1, ptr %5, align 4, !tbaa !45
  store float %2, ptr %6, align 4, !tbaa !45
  %7 = load float, ptr %4, align 4, !tbaa !45
  %8 = load float, ptr %5, align 4, !tbaa !45
  %9 = call reassoc nsz arcp contract afn float @llvm.maxnum.f32(float %7, float %8)
  %10 = load float, ptr %6, align 4, !tbaa !45
  %11 = call reassoc nsz arcp contract afn float @llvm.minnum.f32(float %9, float %10)
  ret float %11
}

; Function Attrs: inlinehint nounwind uwtable
define internal void @_blend_Lab_scale(ptr noundef %0, ptr noundef %1) #2 {
  %3 = alloca ptr, align 8
  %4 = alloca ptr, align 8
  %5 = alloca [4 x float], align 16
  %6 = alloca i64, align 8
  store ptr %0, ptr %3, align 8, !tbaa !11
  store ptr %1, ptr %4, align 8, !tbaa !11
  call void @llvm.lifetime.start.p0(i64 16, ptr %5) #8
  call void @llvm.memcpy.p0.p0.i64(ptr align 16 %5, ptr align 16 @__const._blend_Lab_scale.scale, i64 16, i1 false)
  call void @llvm.lifetime.start.p0(i64 8, ptr %6) #8
  store i64 0, ptr %6, align 8, !tbaa !43
  br label %7

7:                                                ; preds = %23, %2
  %8 = load i64, ptr %6, align 8, !tbaa !43
  %9 = icmp ult i64 %8, 4
  br i1 %9, label %11, label %10

10:                                               ; preds = %7
  call void @llvm.lifetime.end.p0(i64 8, ptr %6) #8
  br label %26

11:                                               ; preds = %7
  %12 = load ptr, ptr %3, align 8, !tbaa !11
  %13 = load i64, ptr %6, align 8, !tbaa !43
  %14 = getelementptr inbounds nuw float, ptr %12, i64 %13
  %15 = load float, ptr %14, align 4, !tbaa !45
  %16 = load i64, ptr %6, align 8, !tbaa !43
  %17 = getelementptr inbounds nuw [4 x float], ptr %5, i64 0, i64 %16
  %18 = load float, ptr %17, align 4, !tbaa !45
  %19 = fmul reassoc nsz arcp contract afn float %15, %18
  %20 = load ptr, ptr %4, align 8, !tbaa !11
  %21 = load i64, ptr %6, align 8, !tbaa !43
  %22 = getelementptr inbounds nuw float, ptr %20, i64 %21
  store float %19, ptr %22, align 4, !tbaa !45
  br label %23

23:                                               ; preds = %11
  %24 = load i64, ptr %6, align 8, !tbaa !43
  %25 = add i64 %24, 1
  store i64 %25, ptr %6, align 8, !tbaa !43
  br label %7

26:                                               ; preds = %10
  call void @llvm.lifetime.end.p0(i64 16, ptr %5) #8
  ret void
}

; Function Attrs: nounwind uwtable
define internal void @_blend_lightness(ptr noundef %0, ptr noundef %1, ptr noundef %2, ptr noalias noundef %3, i64 noundef %4, ptr noundef %5, ptr noundef %6) #0 {
  %8 = alloca ptr, align 8
  %9 = alloca ptr, align 8
  %10 = alloca ptr, align 8
  %11 = alloca ptr, align 8
  %12 = alloca i64, align 8
  %13 = alloca ptr, align 8
  %14 = alloca ptr, align 8
  %15 = alloca i64, align 8
  %16 = alloca i64, align 8
  %17 = alloca float, align 4
  %18 = alloca [4 x float], align 16
  %19 = alloca [4 x float], align 16
  store ptr %0, ptr %8, align 8, !tbaa !11
  store ptr %1, ptr %9, align 8, !tbaa !11
  store ptr %2, ptr %10, align 8, !tbaa !11
  store ptr %3, ptr %11, align 8, !tbaa !11
  store i64 %4, ptr %12, align 8, !tbaa !43
  store ptr %5, ptr %13, align 8, !tbaa !11
  store ptr %6, ptr %14, align 8, !tbaa !11
  call void @llvm.lifetime.start.p0(i64 8, ptr %15) #8
  store i64 0, ptr %15, align 8, !tbaa !43
  call void @llvm.lifetime.start.p0(i64 8, ptr %16) #8
  store i64 0, ptr %16, align 8, !tbaa !43
  br label %20

20:                                               ; preds = %85, %7
  %21 = load i64, ptr %15, align 8, !tbaa !43
  %22 = load i64, ptr %12, align 8, !tbaa !43
  %23 = icmp ult i64 %21, %22
  br i1 %23, label %25, label %24

24:                                               ; preds = %20
  call void @llvm.lifetime.end.p0(i64 8, ptr %16) #8
  call void @llvm.lifetime.end.p0(i64 8, ptr %15) #8
  br label %90

25:                                               ; preds = %20
  call void @llvm.lifetime.start.p0(i64 4, ptr %17) #8
  %26 = load ptr, ptr %11, align 8, !tbaa !11
  %27 = load i64, ptr %15, align 8, !tbaa !43
  %28 = getelementptr inbounds nuw float, ptr %26, i64 %27
  %29 = load float, ptr %28, align 4, !tbaa !45
  store float %29, ptr %17, align 4, !tbaa !45
  call void @llvm.lifetime.start.p0(i64 16, ptr %18) #8
  call void @llvm.lifetime.start.p0(i64 16, ptr %19) #8
  %30 = load ptr, ptr %8, align 8, !tbaa !11
  %31 = load i64, ptr %16, align 8, !tbaa !43
  %32 = getelementptr inbounds nuw float, ptr %30, i64 %31
  %33 = getelementptr inbounds [4 x float], ptr %18, i64 0, i64 0
  call void @_blend_Lab_scale(ptr noundef %32, ptr noundef %33)
  %34 = load ptr, ptr %9, align 8, !tbaa !11
  %35 = load i64, ptr %16, align 8, !tbaa !43
  %36 = getelementptr inbounds nuw float, ptr %34, i64 %35
  %37 = getelementptr inbounds [4 x float], ptr %19, i64 0, i64 0
  call void @_blend_Lab_scale(ptr noundef %36, ptr noundef %37)
  %38 = getelementptr inbounds [4 x float], ptr %18, i64 0, i64 0
  %39 = load float, ptr %38, align 16, !tbaa !45
  %40 = load float, ptr %17, align 4, !tbaa !45
  %41 = fsub reassoc nsz arcp contract afn float 1.000000e+00, %40
  %42 = fmul reassoc nsz arcp contract afn float %39, %41
  %43 = getelementptr inbounds [4 x float], ptr %19, i64 0, i64 0
  %44 = load float, ptr %43, align 16, !tbaa !45
  %45 = load float, ptr %17, align 4, !tbaa !45
  %46 = fmul reassoc nsz arcp contract afn float %44, %45
  %47 = fadd reassoc nsz arcp contract afn float %42, %46
  %48 = load ptr, ptr %13, align 8, !tbaa !11
  %49 = getelementptr inbounds float, ptr %48, i64 0
  %50 = load float, ptr %49, align 4, !tbaa !45
  %51 = load ptr, ptr %14, align 8, !tbaa !11
  %52 = getelementptr inbounds float, ptr %51, i64 0
  %53 = load float, ptr %52, align 4, !tbaa !45
  %54 = call reassoc nsz arcp contract afn float @_CLAMP(float noundef %47, float noundef %50, float noundef %53)
  %55 = getelementptr inbounds [4 x float], ptr %19, i64 0, i64 0
  store float %54, ptr %55, align 16, !tbaa !45
  %56 = getelementptr inbounds [4 x float], ptr %18, i64 0, i64 1
  %57 = load float, ptr %56, align 4, !tbaa !45
  %58 = load ptr, ptr %13, align 8, !tbaa !11
  %59 = getelementptr inbounds float, ptr %58, i64 1
  %60 = load float, ptr %59, align 4, !tbaa !45
  %61 = load ptr, ptr %14, align 8, !tbaa !11
  %62 = getelementptr inbounds float, ptr %61, i64 1
  %63 = load float, ptr %62, align 4, !tbaa !45
  %64 = call reassoc nsz arcp contract afn float @_CLAMP(float noundef %57, float noundef %60, float noundef %63)
  %65 = getelementptr inbounds [4 x float], ptr %19, i64 0, i64 1
  store float %64, ptr %65, align 4, !tbaa !45
  %66 = getelementptr inbounds [4 x float], ptr %18, i64 0, i64 2
  %67 = load float, ptr %66, align 8, !tbaa !45
  %68 = load ptr, ptr %13, align 8, !tbaa !11
  %69 = getelementptr inbounds float, ptr %68, i64 2
  %70 = load float, ptr %69, align 4, !tbaa !45
  %71 = load ptr, ptr %14, align 8, !tbaa !11
  %72 = getelementptr inbounds float, ptr %71, i64 2
  %73 = load float, ptr %72, align 4, !tbaa !45
  %74 = call reassoc nsz arcp contract afn float @_CLAMP(float noundef %67, float noundef %70, float noundef %73)
  %75 = getelementptr inbounds [4 x float], ptr %19, i64 0, i64 2
  store float %74, ptr %75, align 8, !tbaa !45
  %76 = getelementptr inbounds [4 x float], ptr %19, i64 0, i64 0
  %77 = load ptr, ptr %10, align 8, !tbaa !11
  %78 = load i64, ptr %16, align 8, !tbaa !43
  %79 = getelementptr inbounds nuw float, ptr %77, i64 %78
  call void @_blend_Lab_rescale(ptr noundef %76, ptr noundef %79)
  %80 = load float, ptr %17, align 4, !tbaa !45
  %81 = load ptr, ptr %10, align 8, !tbaa !11
  %82 = load i64, ptr %16, align 8, !tbaa !43
  %83 = add i64 %82, 3
  %84 = getelementptr inbounds nuw float, ptr %81, i64 %83
  store float %80, ptr %84, align 4, !tbaa !45
  call void @llvm.lifetime.end.p0(i64 16, ptr %19) #8
  call void @llvm.lifetime.end.p0(i64 16, ptr %18) #8
  call void @llvm.lifetime.end.p0(i64 4, ptr %17) #8
  br label %85

85:                                               ; preds = %25
  %86 = load i64, ptr %15, align 8, !tbaa !43
  %87 = add i64 %86, 1
  store i64 %87, ptr %15, align 8, !tbaa !43
  %88 = load i64, ptr %16, align 8, !tbaa !43
  %89 = add i64 %88, 4
  store i64 %89, ptr %16, align 8, !tbaa !43
  br label %20

90:                                               ; preds = %24
  ret void
}