; Function Attrs: nofree norecurse nosync nounwind memory(argmem: readwrite) uwtable
define internal void @_blend_lightness(ptr noundef readonly captures(none) %0, ptr noundef readonly captures(none) %1, ptr noundef writeonly captures(none) %2, ptr noalias noundef readonly captures(none) %3, i64 noundef %4, ptr noundef readonly captures(none) %5, ptr noundef readonly captures(none) %6) unnamed_addr #11 {
  %8 = alloca [4 x float], align 16
  %9 = alloca [4 x float], align 16
  %.not = icmp eq i64 %4, 0
  br i1 %.not, label %._crit_edge, label %.lr.ph

.lr.ph:                                           ; preds = %7
  %10 = getelementptr inbounds nuw i8, ptr %8, i64 4
  %11 = getelementptr inbounds nuw i8, ptr %5, i64 4
  %12 = getelementptr inbounds nuw i8, ptr %6, i64 4
  %13 = getelementptr inbounds nuw i8, ptr %9, i64 4
  %14 = getelementptr inbounds nuw i8, ptr %8, i64 8
  %15 = getelementptr inbounds nuw i8, ptr %5, i64 8
  %16 = getelementptr inbounds nuw i8, ptr %6, i64 8
  %17 = getelementptr inbounds nuw i8, ptr %9, i64 8
  br label %18

._crit_edge:                                      ; preds = %_blend_Lab_rescale.exit, %7
  ret void

18:                                               ; preds = %.lr.ph, %_blend_Lab_rescale.exit
  %.029 = phi i64 [ 0, %.lr.ph ], [ %69, %_blend_Lab_rescale.exit ]
  %.02228 = phi i64 [ 0, %.lr.ph ], [ %70, %_blend_Lab_rescale.exit ]
  %19 = getelementptr inbounds nuw float, ptr %3, i64 %.029
  %20 = load float, ptr %19, align 4, !tbaa !36
  call void @llvm.lifetime.start.p0(i64 16, ptr nonnull %8) #8
  call void @llvm.lifetime.start.p0(i64 16, ptr nonnull %9) #8
  %21 = getelementptr inbounds nuw float, ptr %0, i64 %.02228
  br label %22

22:                                               ; preds = %22, %18
  %.06.i = phi i64 [ 0, %18 ], [ %29, %22 ]
  %23 = getelementptr inbounds nuw float, ptr %21, i64 %.06.i
  %24 = load float, ptr %23, align 4, !tbaa !36
  %25 = getelementptr inbounds nuw [4 x float], ptr @__const._blend_Lab_scale.scale, i64 0, i64 %.06.i
  %26 = load float, ptr %25, align 4, !tbaa !36
  %27 = fmul reassoc nsz arcp contract afn float %26, %24
  %28 = getelementptr inbounds nuw float, ptr %8, i64 %.06.i
  store float %27, ptr %28, align 4, !tbaa !36
  %29 = add nuw nsw i64 %.06.i, 1
  %exitcond.not.i = icmp eq i64 %29, 4
  br i1 %exitcond.not.i, label %_blend_Lab_scale.exit, label %22

_blend_Lab_scale.exit:                            ; preds = %22
  %30 = getelementptr inbounds nuw float, ptr %1, i64 %.02228
  br label %31

31:                                               ; preds = %31, %_blend_Lab_scale.exit
  %.06.i23 = phi i64 [ 0, %_blend_Lab_scale.exit ], [ %38, %31 ]
  %32 = getelementptr inbounds nuw float, ptr %30, i64 %.06.i23
  %33 = load float, ptr %32, align 4, !tbaa !36
  %34 = getelementptr inbounds nuw [4 x float], ptr @__const._blend_Lab_scale.scale, i64 0, i64 %.06.i23
  %35 = load float, ptr %34, align 4, !tbaa !36
  %36 = fmul reassoc nsz arcp contract afn float %35, %33
  %37 = getelementptr inbounds nuw float, ptr %9, i64 %.06.i23
  store float %36, ptr %37, align 4, !tbaa !36
  %38 = add nuw nsw i64 %.06.i23, 1
  %exitcond.not.i24 = icmp eq i64 %38, 4
  br i1 %exitcond.not.i24, label %_blend_Lab_scale.exit25, label %31

_blend_Lab_scale.exit25:                          ; preds = %31
  %39 = load float, ptr %8, align 16, !tbaa !36
  %40 = load float, ptr %9, align 16, !tbaa !36
  %41 = fsub reassoc nsz arcp contract afn float %40, %39
  %42 = fmul reassoc nsz arcp contract afn float %41, %20
  %43 = fadd reassoc nsz arcp contract afn float %42, %39
  %44 = load float, ptr %5, align 4, !tbaa !36
  %45 = load float, ptr %6, align 4, !tbaa !36
  %46 = tail call reassoc nsz arcp contract afn float @llvm.maxnum.f32(float %43, float %44)
  %47 = tail call reassoc nsz arcp contract afn noundef float @llvm.minnum.f32(float %46, float %45)
  store float %47, ptr %9, align 16, !tbaa !36
  %48 = load float, ptr %10, align 4, !tbaa !36
  %49 = load float, ptr %11, align 4, !tbaa !36
  %50 = load float, ptr %12, align 4, !tbaa !36
  %51 = tail call reassoc nsz arcp contract afn float @llvm.maxnum.f32(float %48, float %49)
  %52 = tail call reassoc nsz arcp contract afn noundef float @llvm.minnum.f32(float %51, float %50)
  store float %52, ptr %13, align 4, !tbaa !36
  %53 = load float, ptr %14, align 8, !tbaa !36
  %54 = load float, ptr %15, align 4, !tbaa !36
  %55 = load float, ptr %16, align 4, !tbaa !36
  %56 = tail call reassoc nsz arcp contract afn float @llvm.maxnum.f32(float %53, float %54)
  %57 = tail call reassoc nsz arcp contract afn noundef float @llvm.minnum.f32(float %56, float %55)
  store float %57, ptr %17, align 8, !tbaa !36
  %58 = getelementptr inbounds nuw float, ptr %2, i64 %.02228
  br label %59

59:                                               ; preds = %59, %_blend_Lab_scale.exit25
  %.06.i26 = phi i64 [ 0, %_blend_Lab_scale.exit25 ], [ %66, %59 ]
  %60 = getelementptr inbounds nuw float, ptr %9, i64 %.06.i26
  %61 = load float, ptr %60, align 4, !tbaa !36
  %62 = getelementptr inbounds nuw [4 x float], ptr @__const._blend_Lab_rescale.scale, i64 0, i64 %.06.i26
  %63 = load float, ptr %62, align 4, !tbaa !36
  %64 = fmul reassoc nsz arcp contract afn float %63, %61
  %65 = getelementptr inbounds nuw float, ptr %58, i64 %.06.i26
  store float %64, ptr %65, align 4, !tbaa !36
  %66 = add nuw nsw i64 %.06.i26, 1
  %exitcond.not.i27 = icmp eq i64 %66, 4
  br i1 %exitcond.not.i27, label %_blend_Lab_rescale.exit, label %59

_blend_Lab_rescale.exit:                          ; preds = %59
  %67 = or disjoint i64 %.02228, 3
  %68 = getelementptr inbounds nuw float, ptr %2, i64 %67
  store float %20, ptr %68, align 4, !tbaa !36
  call void @llvm.lifetime.end.p0(i64 16, ptr nonnull %9) #8
  call void @llvm.lifetime.end.p0(i64 16, ptr nonnull %8) #8
  %69 = add nuw i64 %.029, 1
  %70 = add i64 %.02228, 4
  %exitcond.not = icmp eq i64 %69, %4
  br i1 %exitcond.not, label %._crit_edge, label %18
}